target datalayout = "e-m:e-p270:32:32-p271:32:32-p272:64:64-i64:64-i128:128-f80:128-n8:16:32:64-S128"
target triple = "x86_64-pc-linux-gnu"

%struct.ident_t = type { i32, i32, i32, i32, ptr }
%"class.std::__cxx11::basic_string" = type { %"struct.std::__cxx11::basic_string<char>::_Alloc_hider", i64, %union.anon }
%"struct.std::__cxx11::basic_string<char>::_Alloc_hider" = type { ptr }
%union.anon = type { i64, [8 x i8] }
%"struct.faiss::AutoTuneCriterion" = type { ptr, i64, i64, i64, %"class.std::vector", %"class.std::vector.0" }
%"class.std::vector" = type { %"struct.std::_Vector_base" }
%"struct.std::_Vector_base" = type { %"struct.std::_Vector_base<float, std::allocator<float>>::_Vector_impl" }
%"struct.std::_Vector_base<float, std::allocator<float>>::_Vector_impl" = type { %"struct.std::_Vector_base<float, std::allocator<float>>::_Vector_impl_data" }
%"struct.std::_Vector_base<float, std::allocator<float>>::_Vector_impl_data" = type { ptr, ptr, ptr }
%"class.std::vector.0" = type { %"struct.std::_Vector_base.1" }
%"struct.std::_Vector_base.1" = type { %"struct.std::_Vector_base<long, std::allocator<long>>::_Vector_impl" }
%"struct.std::_Vector_base<long, std::allocator<long>>::_Vector_impl" = type { %"struct.std::_Vector_base<long, std::allocator<long>>::_Vector_impl_data" }
%"struct.std::_Vector_base<long, std::allocator<long>>::_Vector_impl_data" = type { ptr, ptr, ptr }
%"struct.faiss::IntersectionCriterion" = type { %"struct.faiss::AutoTuneCriterion", i64 }

@.str.1 = private unnamed_addr constant [49 x i8] c"Error: '%s' failed: ground truth not initialized\00", align 1
@.str.3 = private unnamed_addr constant [108 x i8] c"generated/home/dtcxzyw/WorkSpace/Projects/compilers/llvm-opt-benchmark/bench/faiss/faiss/faiss/AutoTune.cpp\00", align 1
@_ZTIN5faiss14FaissExceptionE = external constant ptr
@.str.4 = private unnamed_addr constant [56 x i8] c"(gt_I.size() == gt_nnn * nq && gt_nnn >= R && nnn >= R)\00", align 1
@__PRETTY_FUNCTION__._ZNK5faiss21IntersectionCriterion8evaluateEPKfPKl = private unnamed_addr constant [90 x i8] c"virtual double faiss::IntersectionCriterion::evaluate(const float *, const idx_t *) const\00", align 1
@3 = private unnamed_addr constant %struct.ident_t { i32 0, i32 2, i32 0, i32 22, ptr @0 }, align 8

; Function Attrs: mustprogress nounwind uwtable
define linkonce_odr noundef i64 @_ZNKSt6vectorIlSaIlEE4sizeEv(ptr noundef nonnull align 8 dereferenceable(24) %0) #1 comdat align 2 {
  %2 = alloca ptr, align 8
  store ptr %0, ptr %2, align 8
  %3 = load ptr, ptr %2, align 8
  %4 = getelementptr inbounds %"struct.std::_Vector_base.1", ptr %3, i32 0, i32 0
  %5 = getelementptr inbounds %"struct.std::_Vector_base<long, std::allocator<long>>::_Vector_impl_data", ptr %4, i32 0, i32 1
  %6 = load ptr, ptr %5, align 8
  %7 = getelementptr inbounds %"struct.std::_Vector_base.1", ptr %3, i32 0, i32 0
  %8 = getelementptr inbounds %"struct.std::_Vector_base<long, std::allocator<long>>::_Vector_impl_data", ptr %7, i32 0, i32 0
  %9 = load ptr, ptr %8, align 8
  %10 = ptrtoint ptr %6 to i64
  %11 = ptrtoint ptr %9 to i64
  %12 = sub i64 %10, %11
  %13 = sdiv exact i64 %12, 8
  ret i64 %13
}

; Function Attrs: mustprogress uwtable
define noundef double @_ZNK5faiss21IntersectionCriterion8evaluateEPKfPKl(ptr noundef nonnull align 8 dereferenceable(88) %0, ptr noundef %1, ptr noundef %2) unnamed_addr #0 align 2 personality ptr @__gxx_personality_v0 {
  %4 = alloca ptr, align 8
  %5 = alloca ptr, align 8
  %6 = alloca ptr, align 8
  %7 = alloca %"class.std::__cxx11::basic_string", align 8
  %8 = alloca i32, align 4
  %9 = alloca ptr, align 8
  %10 = alloca i32, align 4
  %11 = alloca i64, align 8
  store ptr %0, ptr %4, align 8
  store ptr %1, ptr %5, align 8
  store ptr %2, ptr %6, align 8
  %12 = load ptr, ptr %4, align 8
  br label %13

13:                                               ; preds = %3
  %14 = getelementptr inbounds %"struct.faiss::AutoTuneCriterion", ptr %12, i32 0, i32 5
  %15 = call noundef i64 @_ZNKSt6vectorIlSaIlEE4sizeEv(ptr noundef nonnull align 8 dereferenceable(24) %14) #5
  %16 = getelementptr inbounds %"struct.faiss::AutoTuneCriterion", ptr %12, i32 0, i32 3
  %17 = load i64, ptr %16, align 8
  %18 = getelementptr inbounds %"struct.faiss::AutoTuneCriterion", ptr %12, i32 0, i32 1
  %19 = load i64, ptr %18, align 8
  %20 = mul nsw i64 %17, %19
  %21 = icmp eq i64 %15, %20
  br i1 %21, label %22, label %34

22:                                               ; preds = %13
  %23 = getelementptr inbounds %"struct.faiss::AutoTuneCriterion", ptr %12, i32 0, i32 3
  %24 = load i64, ptr %23, align 8
  %25 = getelementptr inbounds %"struct.faiss::IntersectionCriterion", ptr %12, i32 0, i32 1
  %26 = load i64, ptr %25, align 8
  %27 = icmp sge i64 %24, %26
  br i1 %27, label %28, label %34

28:                                               ; preds = %22
  %29 = getelementptr inbounds %"struct.faiss::AutoTuneCriterion", ptr %12, i32 0, i32 2
  %30 = load i64, ptr %29, align 8
  %31 = getelementptr inbounds %"struct.faiss::IntersectionCriterion", ptr %12, i32 0, i32 1
  %32 = load i64, ptr %31, align 8
  %33 = icmp sge i64 %30, %32
  br i1 %33, label %57, label %34

34:                                               ; preds = %28, %22, %13
  br label %35

35:                                               ; preds = %34
  call void @_ZNSt7__cxx1112basic_stringIcSt11char_traitsIcESaIcEEC1Ev(ptr noundef nonnull align 8 dereferenceable(32) %7) #5
  %36 = call i32 (ptr, i64, ptr, ...) @snprintf(ptr noundef null, i64 noundef 0, ptr noundef @.str.1, ptr noundef @.str.4) #5
  store i32 %36, ptr %8, align 4
  %37 = load i32, ptr %8, align 4
  %38 = add nsw i32 %37, 1
  %39 = sext i32 %38 to i64
  invoke void @_ZNSt7__cxx1112basic_stringIcSt11char_traitsIcESaIcEE6resizeEm(ptr noundef nonnull align 8 dereferenceable(32) %7, i64 noundef %39)
          to label %40 unwind label %47

40:                                               ; preds = %35
  %41 = invoke noundef nonnull align 1 dereferenceable(1) ptr @_ZNSt7__cxx1112basic_stringIcSt11char_traitsIcESaIcEEixEm(ptr noundef nonnull align 8 dereferenceable(32) %7, i64 noundef 0)
          to label %42 unwind label %47

42:                                               ; preds = %40
  %43 = call noundef i64 @_ZNKSt7__cxx1112basic_stringIcSt11char_traitsIcESaIcEE4sizeEv(ptr noundef nonnull align 8 dereferenceable(32) %7) #5
  %44 = call i32 (ptr, i64, ptr, ...) @snprintf(ptr noundef %41, i64 noundef %43, ptr noundef @.str.1, ptr noundef @.str.4) #5
  %45 = call ptr @__cxa_allocate_exception(i64 40) #5
  invoke void @_ZN5faiss14FaissExceptionC1ERKNSt7__cxx1112basic_stringIcSt11char_traitsIcESaIcEEEPKcSA_i(ptr noundef nonnull align 8 dereferenceable(40) %45, ptr noundef nonnull align 8 dereferenceable(32) %7, ptr noundef @__PRETTY_FUNCTION__._ZNK5faiss21IntersectionCriterion8evaluateEPKfPKl, ptr noundef @.str.3, i32 noundef 90)
          to label %46 unwind label %51

46:                                               ; preds = %42
  invoke void @__cxa_throw(ptr %45, ptr @_ZTIN5faiss14FaissExceptionE, ptr @_ZN5faiss14FaissExceptionD2Ev) #19
          to label %73 unwind label %47

47:                                               ; preds = %46, %40, %35
  %48 = landingpad { ptr, i32 }
          cleanup
  %49 = extractvalue { ptr, i32 } %48, 0
  store ptr %49, ptr %9, align 8
  %50 = extractvalue { ptr, i32 } %48, 1
  store i32 %50, ptr %10, align 4
  br label %55

51:                                               ; preds = %42
  %52 = landingpad { ptr, i32 }
          cleanup
  %53 = extractvalue { ptr, i32 } %52, 0
  store ptr %53, ptr %9, align 8
  %54 = extractvalue { ptr, i32 } %52, 1
  store i32 %54, ptr %10, align 4
  call void @__cxa_free_exception(ptr %45) #5
  br label %55

55:                                               ; preds = %51, %47
  call void @_ZNSt7__cxx1112basic_stringIcSt11char_traitsIcESaIcEED1Ev(ptr noundef nonnull align 8 dereferenceable(32) %7) #5
  br label %68

56:                                               ; No predecessors!
  br label %57

57:                                               ; preds = %56, %28
  br label %58

58:                                               ; preds = %57
  store i64 0, ptr %11, align 8
  call void (ptr, i32, ptr, ...) @__kmpc_fork_call(ptr @3, i32 3, ptr @_ZNK5faiss21IntersectionCriterion8evaluateEPKfPKl.omp_outlined, ptr %12, ptr %11, ptr %6)
  %59 = load i64, ptr %11, align 8
  %60 = sitofp i64 %59 to double
  %61 = getelementptr inbounds %"struct.faiss::AutoTuneCriterion", ptr %12, i32 0, i32 1
  %62 = load i64, ptr %61, align 8
  %63 = getelementptr inbounds %"struct.faiss::IntersectionCriterion", ptr %12, i32 0, i32 1
  %64 = load i64, ptr %63, align 8
  %65 = mul nsw i64 %62, %64
  %66 = sitofp i64 %65 to double
  %67 = fdiv double %60, %66
  ret double %67

68:                                               ; preds = %55
  %69 = load ptr, ptr %9, align 8
  %70 = load i32, ptr %10, align 4
  %71 = insertvalue { ptr, i32 } poison, ptr %69, 0
  %72 = insertvalue { ptr, i32 } %71, i32 %70, 1
  resume { ptr, i32 } %72

73:                                               ; preds = %46
  unreachable
}