; Function Attrs: mustprogress uwtable
define noundef double @_ZNK5faiss21IntersectionCriterion8evaluateEPKfPKl(ptr noundef nonnull align 8 dereferenceable(88) %0, ptr nocapture readnone %1, ptr noundef %2) unnamed_addr #0 align 2 personality ptr @__gxx_personality_v0 {
  %4 = alloca ptr, align 8
  %5 = alloca %"class.std::__cxx11::basic_string", align 8
  %6 = alloca i64, align 8
  store ptr %2, ptr %4, align 8
  %7 = getelementptr inbounds i8, ptr %0, i64 56
  %8 = getelementptr inbounds i8, ptr %0, i64 64
  %9 = load ptr, ptr %8, align 8
  %10 = load ptr, ptr %7, align 8
  %11 = ptrtoint ptr %9 to i64
  %12 = ptrtoint ptr %10 to i64
  %13 = sub i64 %11, %12
  %14 = ashr exact i64 %13, 3
  %15 = getelementptr inbounds i8, ptr %0, i64 24
  %16 = load i64, ptr %15, align 8
  %17 = getelementptr inbounds i8, ptr %0, i64 8
  %18 = load i64, ptr %17, align 8
  %19 = mul nsw i64 %18, %16
  %20 = icmp eq i64 %14, %19
  br i1 %20, label %21, label %26

21:                                               ; preds = %3
  %22 = getelementptr inbounds i8, ptr %0, i64 80
  %23 = load i64, ptr %22, align 8
  %.not = icmp slt i64 %16, %23
  %24 = getelementptr inbounds i8, ptr %0, i64 16
  %25 = load i64, ptr %24, align 8
  %.not5 = icmp slt i64 %25, %23
  %or.cond = select i1 %.not, i1 true, i1 %.not5
  br i1 %or.cond, label %26, label %42

26:                                               ; preds = %3, %21
  call void @_ZNSt7__cxx1112basic_stringIcSt11char_traitsIcESaIcEEC1Ev(ptr noundef nonnull align 8 dereferenceable(32) %5) #14
  %27 = call i32 (ptr, i64, ptr, ...) @snprintf(ptr noundef null, i64 noundef 0, ptr noundef nonnull @.str.1, ptr noundef nonnull @.str.4) #14
  %28 = add nsw i32 %27, 1
  %29 = sext i32 %28 to i64
  invoke void @_ZNSt7__cxx1112basic_stringIcSt11char_traitsIcESaIcEE6resizeEm(ptr noundef nonnull align 8 dereferenceable(32) %5, i64 noundef %29)
          to label %30 unwind label %37

30:                                               ; preds = %26
  %31 = invoke noundef nonnull align 1 dereferenceable(1) ptr @_ZNSt7__cxx1112basic_stringIcSt11char_traitsIcESaIcEEixEm(ptr noundef nonnull align 8 dereferenceable(32) %5, i64 noundef 0)
          to label %32 unwind label %37

32:                                               ; preds = %30
  %33 = call noundef i64 @_ZNKSt7__cxx1112basic_stringIcSt11char_traitsIcESaIcEE4sizeEv(ptr noundef nonnull align 8 dereferenceable(32) %5) #14
  %34 = call i32 (ptr, i64, ptr, ...) @snprintf(ptr noundef nonnull %31, i64 noundef %33, ptr noundef nonnull @.str.1, ptr noundef nonnull @.str.4) #14
  %35 = call ptr @__cxa_allocate_exception(i64 40) #14
  invoke void @_ZN5faiss14FaissExceptionC1ERKNSt7__cxx1112basic_stringIcSt11char_traitsIcESaIcEEEPKcSA_i(ptr noundef nonnull align 8 dereferenceable(40) %35, ptr noundef nonnull align 8 dereferenceable(32) %5, ptr noundef nonnull @__PRETTY_FUNCTION__._ZNK5faiss21IntersectionCriterion8evaluateEPKfPKl, ptr noundef nonnull @.str.3, i32 noundef 90)
          to label %36 unwind label %39

36:                                               ; preds = %32
  invoke void @__cxa_throw(ptr nonnull %35, ptr nonnull @_ZTIN5faiss14FaissExceptionE, ptr nonnull @_ZN5faiss14FaissExceptionD2Ev) #30
          to label %50 unwind label %37

37:                                               ; preds = %36, %30, %26
  %38 = landingpad { ptr, i32 }
          cleanup
  br label %41

39:                                               ; preds = %32
  %40 = landingpad { ptr, i32 }
          cleanup
  call void @__cxa_free_exception(ptr %35) #14
  br label %41

41:                                               ; preds = %39, %37
  %.pn = phi { ptr, i32 } [ %38, %37 ], [ %40, %39 ]
  call void @_ZNSt7__cxx1112basic_stringIcSt11char_traitsIcESaIcEED1Ev(ptr noundef nonnull align 8 dereferenceable(32) %5) #14
  resume { ptr, i32 } %.pn

42:                                               ; preds = %21
  store i64 0, ptr %6, align 8
  call void (ptr, i32, ptr, ...) @__kmpc_fork_call(ptr nonnull @3, i32 3, ptr nonnull @_ZNK5faiss21IntersectionCriterion8evaluateEPKfPKl.omp_outlined, ptr nonnull %0, ptr nonnull %6, ptr nonnull %4)
  %43 = load i64, ptr %6, align 8
  %44 = sitofp i64 %43 to double
  %45 = load i64, ptr %17, align 8
  %46 = load i64, ptr %22, align 8
  %47 = mul nsw i64 %46, %45
  %48 = sitofp i64 %47 to double
  %49 = fdiv double %44, %48
  ret double %49

50:                                               ; preds = %36
  unreachable
}